target datalayout = "e-m:e-p270:32:32-p271:32:32-p272:64:64-i64:64-i128:128-f80:128-n8:16:32:64-S128"
target triple = "x86_64-pc-linux-gnu"

%struct.evthread_lock_callbacks = type { i32, i32, ptr, ptr, ptr, ptr }
%struct.bufferevent_private = type { %struct.bufferevent, ptr, i8, i16, i16, i16, i32, i32, %struct.event_callback, i32, i32, ptr, i64, i64, ptr, %union.anon.7, ptr }
%struct.bufferevent = type { ptr, ptr, %struct.event, %struct.event, ptr, ptr, %struct.event_watermark, %struct.event_watermark, ptr, ptr, ptr, ptr, %struct.timeval, %struct.timeval, i16 }
%struct.event = type { %struct.event_callback, %union.anon.0, i32, i16, i16, ptr, %union.anon.2, %struct.timeval }
%union.anon.0 = type { %struct.anon.1 }
%struct.anon.1 = type { ptr, ptr }
%union.anon.2 = type { %struct.anon.3 }
%struct.anon.3 = type { %struct.anon.4, %struct.timeval }
%struct.anon.4 = type { ptr, ptr }
%struct.event_watermark = type { i64, i64 }
%struct.timeval = type { i64, i64 }
%struct.event_callback = type { %struct.anon, i16, i8, i8, %union.anon, ptr }
%struct.anon = type { ptr, ptr }
%union.anon = type { ptr }
%union.anon.7 = type { %struct.sockaddr_in6 }
%struct.sockaddr_in6 = type { i16, i16, i32, %struct.in6_addr, i32 }
%struct.in6_addr = type { %union.anon.8 }
%union.anon.8 = type { [4 x i32] }
%struct.bufferevent_ops = type { ptr, i64, ptr, ptr, ptr, ptr, ptr, ptr, ptr }
%union.bufferevent_ctrl_data = type { ptr }

@evthread_lock_fns_ = external global %struct.evthread_lock_callbacks, align 8
@event_debug_logging_mask_ = external global i32, align 4
@.str.3 = private unnamed_addr constant [31 x i8] c"%s: cannot set fd for %p to %d\00", align 1
@__func__.bufferevent_setfd = private unnamed_addr constant [18 x i8] c"bufferevent_setfd\00", align 1

; Function Attrs: nounwind uwtable
define i32 @bufferevent_setfd(ptr noundef %0, i32 noundef %1) #0 {
  %3 = alloca ptr, align 8
  %4 = alloca i32, align 4
  %5 = alloca %union.bufferevent_ctrl_data, align 8
  %6 = alloca i32, align 4
  %7 = alloca ptr, align 8
  %8 = alloca ptr, align 8
  store ptr %0, ptr %3, align 8
  store i32 %1, ptr %4, align 4
  call void @llvm.lifetime.start.p0(i64 8, ptr %5) #7
  call void @llvm.lifetime.start.p0(i64 4, ptr %6) #7
  store i32 -1, ptr %6, align 4
  %9 = load i32, ptr %4, align 4
  store i32 %9, ptr %5, align 8
  br label %10

10:                                               ; preds = %2
  call void @llvm.lifetime.start.p0(i64 8, ptr %7) #7
  %11 = load ptr, ptr %3, align 8
  %12 = getelementptr inbounds i8, ptr %11, i64 0
  store ptr %12, ptr %7, align 8
  br label %13

13:                                               ; preds = %10
  %14 = load ptr, ptr %7, align 8
  %15 = getelementptr inbounds nuw %struct.bufferevent_private, ptr %14, i32 0, i32 11
  %16 = load ptr, ptr %15, align 8
  %17 = icmp ne ptr %16, null
  br i1 %17, label %18, label %24

18:                                               ; preds = %13
  %19 = load ptr, ptr getelementptr inbounds nuw (%struct.evthread_lock_callbacks, ptr @evthread_lock_fns_, i32 0, i32 4), align 8
  %20 = load ptr, ptr %7, align 8
  %21 = getelementptr inbounds nuw %struct.bufferevent_private, ptr %20, i32 0, i32 11
  %22 = load ptr, ptr %21, align 8
  %23 = call i32 %19(i32 noundef 0, ptr noundef %22)
  br label %24

24:                                               ; preds = %18, %13
  br label %25

25:                                               ; preds = %24
  br label %26

26:                                               ; preds = %25
  call void @llvm.lifetime.end.p0(i64 8, ptr %7) #7
  br label %27

27:                                               ; preds = %26
  br label %28

28:                                               ; preds = %27
  %29 = load ptr, ptr %3, align 8
  %30 = getelementptr inbounds nuw %struct.bufferevent, ptr %29, i32 0, i32 1
  %31 = load ptr, ptr %30, align 8
  %32 = getelementptr inbounds nuw %struct.bufferevent_ops, ptr %31, i32 0, i32 8
  %33 = load ptr, ptr %32, align 8
  %34 = icmp ne ptr %33, null
  br i1 %34, label %35, label %43

35:                                               ; preds = %28
  %36 = load ptr, ptr %3, align 8
  %37 = getelementptr inbounds nuw %struct.bufferevent, ptr %36, i32 0, i32 1
  %38 = load ptr, ptr %37, align 8
  %39 = getelementptr inbounds nuw %struct.bufferevent_ops, ptr %38, i32 0, i32 8
  %40 = load ptr, ptr %39, align 8
  %41 = load ptr, ptr %3, align 8
  %42 = call i32 %40(ptr noundef %41, i32 noundef 0, ptr noundef %5)
  store i32 %42, ptr %6, align 4
  br label %43

43:                                               ; preds = %35, %28
  %44 = load i32, ptr %6, align 4
  %45 = icmp ne i32 %44, 0
  br i1 %45, label %46, label %56

46:                                               ; preds = %43
  br label %47

47:                                               ; preds = %46
  %48 = load i32, ptr @event_debug_logging_mask_, align 4
  %49 = icmp ne i32 %48, 0
  br i1 %49, label %50, label %53

50:                                               ; preds = %47
  %51 = load ptr, ptr %3, align 8
  %52 = load i32, ptr %4, align 4
  call void (ptr, ...) @event_debugx_(ptr noundef @.str.3, ptr noundef @__func__.bufferevent_setfd, ptr noundef %51, i32 noundef %52)
  br label %53

53:                                               ; preds = %50, %47
  br label %54

54:                                               ; preds = %53
  br label %55

55:                                               ; preds = %54
  br label %56

56:                                               ; preds = %55, %43
  br label %57

57:                                               ; preds = %56
  call void @llvm.lifetime.start.p0(i64 8, ptr %8) #7
  %58 = load ptr, ptr %3, align 8
  %59 = getelementptr inbounds i8, ptr %58, i64 0
  store ptr %59, ptr %8, align 8
  br label %60

60:                                               ; preds = %57
  %61 = load ptr, ptr %8, align 8
  %62 = getelementptr inbounds nuw %struct.bufferevent_private, ptr %61, i32 0, i32 11
  %63 = load ptr, ptr %62, align 8
  %64 = icmp ne ptr %63, null
  br i1 %64, label %65, label %71

65:                                               ; preds = %60
  %66 = load ptr, ptr getelementptr inbounds nuw (%struct.evthread_lock_callbacks, ptr @evthread_lock_fns_, i32 0, i32 5), align 8
  %67 = load ptr, ptr %8, align 8
  %68 = getelementptr inbounds nuw %struct.bufferevent_private, ptr %67, i32 0, i32 11
  %69 = load ptr, ptr %68, align 8
  %70 = call i32 %66(i32 noundef 0, ptr noundef %69)
  br label %71

71:                                               ; preds = %65, %60
  br label %72

72:                                               ; preds = %71
  br label %73

73:                                               ; preds = %72
  call void @llvm.lifetime.end.p0(i64 8, ptr %8) #7
  br label %74

74:                                               ; preds = %73
  br label %75

75:                                               ; preds = %74
  %76 = load i32, ptr %6, align 4
  call void @llvm.lifetime.end.p0(i64 4, ptr %6) #7
  call void @llvm.lifetime.end.p0(i64 8, ptr %5) #7
  ret i32 %76
}