; Function Attrs: nounwind uwtable
define i32 @bufferevent_setfd(ptr noundef %0, i32 noundef %1) local_unnamed_addr #0 {
  %3 = alloca %union.bufferevent_ctrl_data, align 8
  call void @llvm.lifetime.start.p0(i64 8, ptr nonnull %3) #7
  store i32 %1, ptr %3, align 8
  %4 = getelementptr inbounds nuw i8, ptr %0, i64 448
  %5 = load ptr, ptr %4, align 8
  %.not = icmp eq ptr %5, null
  br i1 %.not, label %9, label %6

6:                                                ; preds = %2
  %7 = load ptr, ptr getelementptr inbounds nuw (i8, ptr @evthread_lock_fns_, i64 24), align 8
  %8 = tail call i32 %7(i32 noundef 0, ptr noundef nonnull %5) #7
  br label %9

9:                                                ; preds = %6, %2
  %10 = getelementptr inbounds nuw i8, ptr %0, i64 8
  %11 = load ptr, ptr %10, align 8
  %12 = getelementptr inbounds nuw i8, ptr %11, i64 64
  %13 = load ptr, ptr %12, align 8
  %.not17 = icmp eq ptr %13, null
  br i1 %.not17, label %16, label %14

14:                                               ; preds = %9
  %15 = call i32 %13(ptr noundef nonnull %0, i32 noundef 0, ptr noundef nonnull %3) #7
  br label %16

16:                                               ; preds = %14, %9
  %.0 = phi i32 [ %15, %14 ], [ -1, %9 ]
  %17 = icmp ne i32 %.0, 0
  %18 = load i32, ptr @event_debug_logging_mask_, align 4
  %19 = icmp ne i32 %18, 0
  %or.cond = select i1 %17, i1 %19, i1 false
  br i1 %or.cond, label %20, label %21

20:                                               ; preds = %16
  call void (ptr, ...) @event_debugx_(ptr noundef nonnull @.str.3, ptr noundef nonnull @__func__.bufferevent_setfd, ptr noundef nonnull %0, i32 noundef %1) #7
  br label %21

21:                                               ; preds = %16, %20
  %22 = load ptr, ptr %4, align 8
  %.not18 = icmp eq ptr %22, null
  br i1 %.not18, label %26, label %23

23:                                               ; preds = %21
  %24 = load ptr, ptr getelementptr inbounds nuw (i8, ptr @evthread_lock_fns_, i64 32), align 8
  %25 = call i32 %24(i32 noundef 0, ptr noundef nonnull %22) #7
  br label %26

26:                                               ; preds = %23, %21
  call void @llvm.lifetime.end.p0(i64 8, ptr nonnull %3) #7
  ret i32 %.0
}